target datalayout = "e-m:e-p270:32:32-p271:32:32-p272:64:64-i64:64-i128:128-f80:128-n8:16:32:64-S128"
target triple = "x86_64-pc-linux-gnu"

%struct.AVRational = type { i32, i32 }
%struct.AVChannelLayout = type { i32, i32, %union.anon, ptr }
%union.anon = type { i64 }
%struct.AVFilterContext = type { ptr, ptr, ptr, ptr, ptr, i32, ptr, ptr, i32, ptr, ptr, i32, i32, ptr, ptr, ptr, ptr, i32, ptr, i32, i32 }
%struct.BufferSourceContext = type { ptr, %struct.AVRational, %struct.AVRational, i32, i32, i32, i32, i32, i32, i32, i32, i32, i32, i32, %struct.AVRational, ptr, i32, i32, i32, %struct.AVChannelLayout, ptr, i32, i32, i64, i32, i32 }
%struct.AVPixFmtDescriptor = type { ptr, i8, i8, i8, i64, [4 x %struct.AVComponentDescriptor], ptr }
%struct.AVComponentDescriptor = type { i32, i32, i32, i32, i32 }

@.str.49 = private unnamed_addr constant [26 x i8] c"Unspecified pixel format\0A\00", align 1
@.str.50 = private unnamed_addr constant [91 x i8] c"Setting BufferSourceContext.pix_fmt to a HW format requires hw_frames_ctx to be non-NULL!\0A\00", align 1
@.str.51 = private unnamed_addr constant [20 x i8] c"Invalid size %dx%d\0A\00", align 1
@.str.52 = private unnamed_addr constant [25 x i8] c"Invalid time base %d/%d\0A\00", align 1
@.str.53 = private unnamed_addr constant [65 x i8] c"w:%d h:%d pixfmt:%s tb:%d/%d fr:%d/%d sar:%d/%d csp:%s range:%s\0A\00", align 1

; Function Attrs: inlinehint nounwind uwtable
define internal double @av_q2d(i64 %0) #4 {
  %2 = alloca %struct.AVRational, align 4
  store i64 %0, ptr %2, align 4
  %3 = getelementptr inbounds nuw %struct.AVRational, ptr %2, i32 0, i32 0
  %4 = load i32, ptr %3, align 4, !tbaa !138
  %5 = sitofp i32 %4 to double
  %6 = getelementptr inbounds nuw %struct.AVRational, ptr %2, i32 0, i32 1
  %7 = load i32, ptr %6, align 4, !tbaa !139
  %8 = sitofp i32 %7 to double
  %9 = fdiv nsz double %5, %8
  ret double %9
}

; Function Attrs: cold nounwind optsize uwtable
define internal i32 @init_video(ptr noundef %0) #6 {
  %2 = alloca i32, align 4
  %3 = alloca ptr, align 8
  %4 = alloca ptr, align 8
  %5 = alloca i32, align 4
  store ptr %0, ptr %3, align 8, !tbaa !19
  call void @llvm.lifetime.start.p0(i64 8, ptr %4) #7
  %6 = load ptr, ptr %3, align 8, !tbaa !19
  %7 = getelementptr inbounds nuw %struct.AVFilterContext, ptr %6, i32 0, i32 9
  %8 = load ptr, ptr %7, align 8, !tbaa !21
  store ptr %8, ptr %4, align 8, !tbaa !31
  %9 = load ptr, ptr %4, align 8, !tbaa !31
  %10 = getelementptr inbounds nuw %struct.BufferSourceContext, ptr %9, i32 0, i32 8
  %11 = load i32, ptr %10, align 4, !tbaa !45
  %12 = icmp eq i32 %11, -1
  br i1 %12, label %13, label %15

13:                                               ; preds = %1
  %14 = load ptr, ptr %3, align 8, !tbaa !19
  call void (ptr, i32, ptr, ...) @av_log(ptr noundef %14, i32 noundef 16, ptr noundef @.str.49)
  store i32 -22, ptr %2, align 4
  store i32 1, ptr %5, align 4
  br label %110

15:                                               ; preds = %1
  %16 = load ptr, ptr %4, align 8, !tbaa !31
  %17 = getelementptr inbounds nuw %struct.BufferSourceContext, ptr %16, i32 0, i32 8
  %18 = load i32, ptr %17, align 4, !tbaa !45
  %19 = call ptr @av_pix_fmt_desc_get(i32 noundef %18)
  %20 = getelementptr inbounds nuw %struct.AVPixFmtDescriptor, ptr %19, i32 0, i32 4
  %21 = load i64, ptr %20, align 8, !tbaa !114
  %22 = and i64 %21, 8
  %23 = icmp ne i64 %22, 0
  br i1 %23, label %24, label %32

24:                                               ; preds = %15
  %25 = load ptr, ptr %4, align 8, !tbaa !31
  %26 = getelementptr inbounds nuw %struct.BufferSourceContext, ptr %25, i32 0, i32 15
  %27 = load ptr, ptr %26, align 8, !tbaa !57
  %28 = icmp ne ptr %27, null
  br i1 %28, label %31, label %29

29:                                               ; preds = %24
  %30 = load ptr, ptr %3, align 8, !tbaa !19
  call void (ptr, i32, ptr, ...) @av_log(ptr noundef %30, i32 noundef 16, ptr noundef @.str.50)
  store i32 -22, ptr %2, align 4
  store i32 1, ptr %5, align 4
  br label %110

31:                                               ; preds = %24
  br label %32

32:                                               ; preds = %31, %15
  %33 = load ptr, ptr %4, align 8, !tbaa !31
  %34 = getelementptr inbounds nuw %struct.BufferSourceContext, ptr %33, i32 0, i32 4
  %35 = load i32, ptr %34, align 4, !tbaa !48
  %36 = icmp sle i32 %35, 0
  br i1 %36, label %42, label %37

37:                                               ; preds = %32
  %38 = load ptr, ptr %4, align 8, !tbaa !31
  %39 = getelementptr inbounds nuw %struct.BufferSourceContext, ptr %38, i32 0, i32 5
  %40 = load i32, ptr %39, align 8, !tbaa !51
  %41 = icmp sle i32 %40, 0
  br i1 %41, label %42, label %50

42:                                               ; preds = %37, %32
  %43 = load ptr, ptr %3, align 8, !tbaa !19
  %44 = load ptr, ptr %4, align 8, !tbaa !31
  %45 = getelementptr inbounds nuw %struct.BufferSourceContext, ptr %44, i32 0, i32 4
  %46 = load i32, ptr %45, align 4, !tbaa !48
  %47 = load ptr, ptr %4, align 8, !tbaa !31
  %48 = getelementptr inbounds nuw %struct.BufferSourceContext, ptr %47, i32 0, i32 5
  %49 = load i32, ptr %48, align 8, !tbaa !51
  call void (ptr, i32, ptr, ...) @av_log(ptr noundef %43, i32 noundef 16, ptr noundef @.str.51, i32 noundef %46, i32 noundef %49)
  store i32 -22, ptr %2, align 4
  store i32 1, ptr %5, align 4
  br label %110

50:                                               ; preds = %37
  %51 = load ptr, ptr %4, align 8, !tbaa !31
  %52 = getelementptr inbounds nuw %struct.BufferSourceContext, ptr %51, i32 0, i32 1
  %53 = load i64, ptr %52, align 8
  %54 = call nsz double @av_q2d(i64 %53)
  %55 = fcmp nsz ole double %54, 0.000000e+00
  br i1 %55, label %56, label %66

56:                                               ; preds = %50
  %57 = load ptr, ptr %3, align 8, !tbaa !19
  %58 = load ptr, ptr %4, align 8, !tbaa !31
  %59 = getelementptr inbounds nuw %struct.BufferSourceContext, ptr %58, i32 0, i32 1
  %60 = getelementptr inbounds nuw %struct.AVRational, ptr %59, i32 0, i32 0
  %61 = load i32, ptr %60, align 8, !tbaa !116
  %62 = load ptr, ptr %4, align 8, !tbaa !31
  %63 = getelementptr inbounds nuw %struct.BufferSourceContext, ptr %62, i32 0, i32 1
  %64 = getelementptr inbounds nuw %struct.AVRational, ptr %63, i32 0, i32 1
  %65 = load i32, ptr %64, align 4, !tbaa !117
  call void (ptr, i32, ptr, ...) @av_log(ptr noundef %57, i32 noundef 16, ptr noundef @.str.52, i32 noundef %61, i32 noundef %65)
  store i32 -22, ptr %2, align 4
  store i32 1, ptr %5, align 4
  br label %110

66:                                               ; preds = %50
  %67 = load ptr, ptr %3, align 8, !tbaa !19
  %68 = load ptr, ptr %4, align 8, !tbaa !31
  %69 = getelementptr inbounds nuw %struct.BufferSourceContext, ptr %68, i32 0, i32 4
  %70 = load i32, ptr %69, align 4, !tbaa !48
  %71 = load ptr, ptr %4, align 8, !tbaa !31
  %72 = getelementptr inbounds nuw %struct.BufferSourceContext, ptr %71, i32 0, i32 5
  %73 = load i32, ptr %72, align 8, !tbaa !51
  %74 = load ptr, ptr %4, align 8, !tbaa !31
  %75 = getelementptr inbounds nuw %struct.BufferSourceContext, ptr %74, i32 0, i32 8
  %76 = load i32, ptr %75, align 4, !tbaa !45
  %77 = call ptr @av_get_pix_fmt_name(i32 noundef %76)
  %78 = load ptr, ptr %4, align 8, !tbaa !31
  %79 = getelementptr inbounds nuw %struct.BufferSourceContext, ptr %78, i32 0, i32 1
  %80 = getelementptr inbounds nuw %struct.AVRational, ptr %79, i32 0, i32 0
  %81 = load i32, ptr %80, align 8, !tbaa !116
  %82 = load ptr, ptr %4, align 8, !tbaa !31
  %83 = getelementptr inbounds nuw %struct.BufferSourceContext, ptr %82, i32 0, i32 1
  %84 = getelementptr inbounds nuw %struct.AVRational, ptr %83, i32 0, i32 1
  %85 = load i32, ptr %84, align 4, !tbaa !117
  %86 = load ptr, ptr %4, align 8, !tbaa !31
  %87 = getelementptr inbounds nuw %struct.BufferSourceContext, ptr %86, i32 0, i32 2
  %88 = getelementptr inbounds nuw %struct.AVRational, ptr %87, i32 0, i32 0
  %89 = load i32, ptr %88, align 8, !tbaa !118
  %90 = load ptr, ptr %4, align 8, !tbaa !31
  %91 = getelementptr inbounds nuw %struct.BufferSourceContext, ptr %90, i32 0, i32 2
  %92 = getelementptr inbounds nuw %struct.AVRational, ptr %91, i32 0, i32 1
  %93 = load i32, ptr %92, align 4, !tbaa !119
  %94 = load ptr, ptr %4, align 8, !tbaa !31
  %95 = getelementptr inbounds nuw %struct.BufferSourceContext, ptr %94, i32 0, i32 14
  %96 = getelementptr inbounds nuw %struct.AVRational, ptr %95, i32 0, i32 0
  %97 = load i32, ptr %96, align 4, !tbaa !120
  %98 = load ptr, ptr %4, align 8, !tbaa !31
  %99 = getelementptr inbounds nuw %struct.BufferSourceContext, ptr %98, i32 0, i32 14
  %100 = getelementptr inbounds nuw %struct.AVRational, ptr %99, i32 0, i32 1
  %101 = load i32, ptr %100, align 4, !tbaa !121
  %102 = load ptr, ptr %4, align 8, !tbaa !31
  %103 = getelementptr inbounds nuw %struct.BufferSourceContext, ptr %102, i32 0, i32 10
  %104 = load i32, ptr %103, align 4, !tbaa !59
  %105 = call ptr @av_color_space_name(i32 noundef %104)
  %106 = load ptr, ptr %4, align 8, !tbaa !31
  %107 = getelementptr inbounds nuw %struct.BufferSourceContext, ptr %106, i32 0, i32 12
  %108 = load i32, ptr %107, align 4, !tbaa !61
  %109 = call ptr @av_color_range_name(i32 noundef %108)
  call void (ptr, i32, ptr, ...) @av_log(ptr noundef %67, i32 noundef 40, ptr noundef @.str.53, i32 noundef %70, i32 noundef %73, ptr noundef %77, i32 noundef %81, i32 noundef %85, i32 noundef %89, i32 noundef %93, i32 noundef %97, i32 noundef %101, ptr noundef %105, ptr noundef %109)
  store i32 0, ptr %2, align 4
  store i32 1, ptr %5, align 4
  br label %110

110:                                              ; preds = %66, %56, %42, %29, %13
  call void @llvm.lifetime.end.p0(i64 8, ptr %4) #7
  %111 = load i32, ptr %2, align 4
  ret i32 %111
}