; Function Attrs: cold nounwind optsize uwtable
define internal range(i32 -22, 1) i32 @init_video(ptr noundef %0) #5 {
  %2 = getelementptr inbounds nuw i8, ptr %0, i64 72
  %3 = load ptr, ptr %2, align 8, !tbaa !17
  %4 = getelementptr inbounds nuw i8, ptr %3, i64 44
  %5 = load i32, ptr %4, align 4, !tbaa !37
  %6 = icmp eq i32 %5, -1
  br i1 %6, label %7, label %8

7:                                                ; preds = %1
  tail call void (ptr, i32, ptr, ...) @av_log(ptr noundef nonnull %0, i32 noundef 16, ptr noundef nonnull @.str.49) #6
  br label %50

8:                                                ; preds = %1
  %9 = tail call ptr @av_pix_fmt_desc_get(i32 noundef %5) #6
  %10 = getelementptr inbounds nuw i8, ptr %9, i64 16
  %11 = load i64, ptr %10, align 8, !tbaa !100
  %12 = and i64 %11, 8
  %.not = icmp eq i64 %12, 0
  br i1 %.not, label %17, label %13

13:                                               ; preds = %8
  %14 = getelementptr inbounds nuw i8, ptr %3, i64 80
  %15 = load ptr, ptr %14, align 8, !tbaa !49
  %.not28 = icmp eq ptr %15, null
  br i1 %.not28, label %16, label %17

16:                                               ; preds = %13
  tail call void (ptr, i32, ptr, ...) @av_log(ptr noundef nonnull %0, i32 noundef 16, ptr noundef nonnull @.str.50) #6
  br label %50

17:                                               ; preds = %13, %8
  %18 = getelementptr inbounds nuw i8, ptr %3, i64 28
  %19 = load i32, ptr %18, align 4, !tbaa !40
  %20 = icmp slt i32 %19, 1
  %.phi.trans.insert = getelementptr inbounds nuw i8, ptr %3, i64 32
  %.pre = load i32, ptr %.phi.trans.insert, align 8, !tbaa !43
  %21 = icmp slt i32 %.pre, 1
  %or.cond = select i1 %20, i1 true, i1 %21
  br i1 %or.cond, label %._crit_edge, label %22

._crit_edge:                                      ; preds = %17
  tail call void (ptr, i32, ptr, ...) @av_log(ptr noundef nonnull %0, i32 noundef 16, ptr noundef nonnull @.str.51, i32 noundef %19, i32 noundef %.pre) #6
  br label %50

22:                                               ; preds = %17
  %23 = getelementptr inbounds nuw i8, ptr %3, i64 8
  %24 = load i64, ptr %23, align 8
  %.sroa.0.0.extract.trunc.i = trunc i64 %24 to i32
  %.sroa.2.0.extract.shift.i = lshr i64 %24, 32
  %.sroa.2.0.extract.trunc.i = trunc nuw i64 %.sroa.2.0.extract.shift.i to i32
  %25 = sitofp i32 %.sroa.0.0.extract.trunc.i to double
  %26 = sitofp i32 %.sroa.2.0.extract.trunc.i to double
  %27 = fdiv nsz double %25, %26
  %28 = fcmp nsz ugt double %27, 0.000000e+00
  br i1 %28, label %30, label %29

29:                                               ; preds = %22
  tail call void (ptr, i32, ptr, ...) @av_log(ptr noundef nonnull %0, i32 noundef 16, ptr noundef nonnull @.str.52, i32 noundef %.sroa.0.0.extract.trunc.i, i32 noundef %.sroa.2.0.extract.trunc.i) #6
  br label %50

30:                                               ; preds = %22
  %31 = load i32, ptr %4, align 4, !tbaa !37
  %32 = tail call ptr @av_get_pix_fmt_name(i32 noundef %31) #6
  %33 = load i32, ptr %23, align 8, !tbaa !102
  %34 = getelementptr inbounds nuw i8, ptr %3, i64 12
  %35 = load i32, ptr %34, align 4, !tbaa !103
  %36 = getelementptr inbounds nuw i8, ptr %3, i64 16
  %37 = load i32, ptr %36, align 8, !tbaa !104
  %38 = getelementptr inbounds nuw i8, ptr %3, i64 20
  %39 = load i32, ptr %38, align 4, !tbaa !105
  %40 = getelementptr inbounds nuw i8, ptr %3, i64 68
  %41 = load i32, ptr %40, align 4, !tbaa !106
  %42 = getelementptr inbounds nuw i8, ptr %3, i64 72
  %43 = load i32, ptr %42, align 4, !tbaa !107
  %44 = getelementptr inbounds nuw i8, ptr %3, i64 52
  %45 = load i32, ptr %44, align 4, !tbaa !51
  %46 = tail call ptr @av_color_space_name(i32 noundef %45) #6
  %47 = getelementptr inbounds nuw i8, ptr %3, i64 60
  %48 = load i32, ptr %47, align 4, !tbaa !53
  %49 = tail call ptr @av_color_range_name(i32 noundef %48) #6
  tail call void (ptr, i32, ptr, ...) @av_log(ptr noundef nonnull %0, i32 noundef 40, ptr noundef nonnull @.str.53, i32 noundef %19, i32 noundef %.pre, ptr noundef %32, i32 noundef %33, i32 noundef %35, i32 noundef %37, i32 noundef %39, i32 noundef %41, i32 noundef %43, ptr noundef %46, ptr noundef %49) #6
  br label %50

50:                                               ; preds = %30, %29, %._crit_edge, %16, %7
  %.0 = phi i32 [ -22, %7 ], [ -22, %._crit_edge ], [ -22, %29 ], [ 0, %30 ], [ -22, %16 ]
  ret i32 %.0
}